; Function Attrs: nounwind uwtable
define ptr @l_Lean_KVMap_instValueString___lambda__2(ptr noundef %0) #0 {
  %2 = ptrtoint ptr %0 to i64
  %3 = and i64 %2, 1
  %.not.i16 = icmp eq i64 %3, 0
  br i1 %.not.i16, label %lean_obj_tag.exit.thread, label %lean_obj_tag.exit

lean_obj_tag.exit:                                ; preds = %1
  %4 = and i64 %2, 8589934590
  %5 = icmp eq i64 %4, 0
  br i1 %5, label %8, label %lean_dec.exit

lean_obj_tag.exit.thread:                         ; preds = %1
  %6 = getelementptr i8, ptr %0, i64 4
  %.val.i = load i32, ptr %6, align 4
  %7 = icmp ult i32 %.val.i, 16777216
  br i1 %7, label %8, label %.thread

8:                                                ; preds = %lean_obj_tag.exit.thread, %lean_obj_tag.exit
  %.val = load i32, ptr %0, align 4, !tbaa !8
  %9 = icmp eq i32 %.val, 1
  br i1 %9, label %10, label %15

10:                                               ; preds = %8
  %11 = getelementptr inbounds nuw i8, ptr %0, i64 4
  %12 = load i32, ptr %11, align 4
  %13 = and i32 %12, 16777215
  %14 = or disjoint i32 %13, 16777216
  store i32 %14, ptr %11, align 4
  br label %lean_dec.exit

15:                                               ; preds = %8
  %16 = getelementptr inbounds nuw i8, ptr %0, i64 8
  %17 = load ptr, ptr %16, align 8, !tbaa !4
  %18 = ptrtoint ptr %17 to i64
  %19 = and i64 %18, 1
  %.not = icmp eq i64 %19, 0
  br i1 %.not, label %20, label %lean_inc.exit

20:                                               ; preds = %15
  %.val.i17 = load i32, ptr %17, align 4, !tbaa !8
  %21 = icmp sgt i32 %.val.i17, 0
  br i1 %21, label %22, label %24, !prof !11

22:                                               ; preds = %20
  %23 = add nuw i32 %.val.i17, 1
  store i32 %23, ptr %17, align 4, !tbaa !8
  br label %lean_inc.exit

24:                                               ; preds = %20
  %.not.i18 = icmp eq i32 %.val.i17, 0
  br i1 %.not.i18, label %lean_inc.exit, label %25

25:                                               ; preds = %24
  tail call void @lean_inc_ref_cold(ptr noundef nonnull %17) #6
  br label %lean_inc.exit

lean_inc.exit:                                    ; preds = %25, %24, %22, %15
  br i1 %.not.i16, label %26, label %lean_dec.exit13

26:                                               ; preds = %lean_inc.exit
  %27 = load i32, ptr %0, align 4, !tbaa !8
  %28 = icmp sgt i32 %27, 1
  br i1 %28, label %29, label %31, !prof !11

29:                                               ; preds = %26
  %30 = add nsw i32 %27, -1
  store i32 %30, ptr %0, align 4, !tbaa !8
  br label %lean_dec.exit13

31:                                               ; preds = %26
  %.not.i = icmp eq i32 %27, 0
  br i1 %.not.i, label %lean_dec.exit13, label %32

32:                                               ; preds = %31
  tail call void @lean_dec_ref_cold(ptr noundef nonnull %0) #6
  br label %lean_dec.exit13

lean_dec.exit13:                                  ; preds = %32, %31, %29, %lean_inc.exit
  tail call void @lean_inc_heartbeat() #6
  %33 = tail call noalias ptr @mi_malloc_small(i64 noundef 16) #6
  %34 = icmp eq ptr %33, null
  br i1 %34, label %35, label %lean_alloc_ctor.exit

35:                                               ; preds = %lean_dec.exit13
  tail call void @lean_internal_panic_out_of_memory() #7
  unreachable

lean_alloc_ctor.exit:                             ; preds = %lean_dec.exit13
  %36 = getelementptr inbounds nuw i8, ptr %33, i64 4
  store i32 1, ptr %33, align 4, !tbaa !8
  store i32 16842768, ptr %36, align 4
  %37 = getelementptr inbounds nuw i8, ptr %33, i64 8
  store ptr %17, ptr %37, align 8, !tbaa !4
  br label %lean_dec.exit

.thread:                                          ; preds = %lean_obj_tag.exit.thread
  %38 = load i32, ptr %0, align 4, !tbaa !8
  %39 = icmp sgt i32 %38, 1
  br i1 %39, label %40, label %42, !prof !11

40:                                               ; preds = %.thread
  %41 = add nsw i32 %38, -1
  store i32 %41, ptr %0, align 4, !tbaa !8
  br label %lean_dec.exit

42:                                               ; preds = %.thread
  %.not.i14 = icmp eq i32 %38, 0
  br i1 %.not.i14, label %lean_dec.exit, label %43

43:                                               ; preds = %42
  tail call void @lean_dec_ref_cold(ptr noundef nonnull %0) #6
  br label %lean_dec.exit

lean_dec.exit:                                    ; preds = %lean_obj_tag.exit, %40, %42, %43, %10, %lean_alloc_ctor.exit
  %.1 = phi ptr [ %0, %10 ], [ %33, %lean_alloc_ctor.exit ], [ inttoptr (i64 1 to ptr), %43 ], [ inttoptr (i64 1 to ptr), %42 ], [ inttoptr (i64 1 to ptr), %40 ], [ inttoptr (i64 1 to ptr), %lean_obj_tag.exit ]
  ret ptr %.1
}